; Function Attrs: nofree norecurse nosync nounwind memory(argmem: readwrite) uwtable
define internal void @sbr_hf_apply_noise_0(ptr noundef captures(none) %0, ptr noundef readonly captures(none) %1, ptr noundef readonly captures(none) %2, i32 noundef %3, i32 %4, i32 noundef %5) #1 {
  %7 = icmp sgt i32 %5, 0
  br i1 %7, label %.lr.ph.preheader, label %sbr_hf_apply_noise.exit

.lr.ph.preheader:                                 ; preds = %6
  %wide.trip.count = zext nneg i32 %5 to i64
  br label %.lr.ph

.lr.ph:                                           ; preds = %.lr.ph.preheader, %30
  %indvars.iv = phi i64 [ 0, %.lr.ph.preheader ], [ %indvars.iv.next, %30 ]
  %.034.i5 = phi i32 [ %3, %.lr.ph.preheader ], [ %13, %30 ]
  %.035.i4 = phi float [ 0.000000e+00, %.lr.ph.preheader ], [ %31, %30 ]
  %8 = getelementptr inbounds nuw [2 x float], ptr %0, i64 %indvars.iv
  %9 = load float, ptr %8, align 4, !tbaa !19
  %10 = getelementptr inbounds nuw i8, ptr %8, i64 4
  %11 = load float, ptr %10, align 4, !tbaa !19
  %12 = add nsw i32 %.034.i5, 1
  %13 = and i32 %12, 511
  %14 = getelementptr inbounds nuw float, ptr %1, i64 %indvars.iv
  %15 = load float, ptr %14, align 4, !tbaa !19
  %16 = fcmp nsz une float %15, 0.000000e+00
  br i1 %16, label %17, label %20

17:                                               ; preds = %.lr.ph
  %18 = fadd nsz float %9, %15
  %19 = tail call nsz float @llvm.fmuladd.f32(float %15, float %.035.i4, float %11)
  br label %30

20:                                               ; preds = %.lr.ph
  %21 = getelementptr inbounds nuw float, ptr %2, i64 %indvars.iv
  %22 = load float, ptr %21, align 4, !tbaa !19
  %23 = zext nneg i32 %13 to i64
  %24 = getelementptr inbounds nuw [0 x [2 x float]], ptr @ff_sbr_noise_table, i64 0, i64 %23
  %25 = load float, ptr %24, align 8, !tbaa !19
  %26 = tail call nsz float @llvm.fmuladd.f32(float %22, float %25, float %9)
  %27 = getelementptr inbounds nuw i8, ptr %24, i64 4
  %28 = load float, ptr %27, align 4, !tbaa !19
  %29 = tail call nsz float @llvm.fmuladd.f32(float %22, float %28, float %11)
  br label %30

30:                                               ; preds = %20, %17
  %.032.i = phi nsz float [ %18, %17 ], [ %26, %20 ]
  %.0.i = phi nsz float [ %19, %17 ], [ %29, %20 ]
  store float %.032.i, ptr %8, align 4, !tbaa !19
  store float %.0.i, ptr %10, align 4, !tbaa !19
  %31 = fneg nsz float %.035.i4
  %indvars.iv.next = add nuw nsw i64 %indvars.iv, 1
  %exitcond.not = icmp eq i64 %indvars.iv.next, %wide.trip.count
  br i1 %exitcond.not, label %sbr_hf_apply_noise.exit, label %.lr.ph, !llvm.loop !33

sbr_hf_apply_noise.exit:                          ; preds = %30, %6
  ret void
}